; ModuleID = 'source-C-CXX/27/778.c'
source_filename = "source-C-CXX/27/778.c"
target datalayout = "e-m:e-p270:32:32-p271:32:32-p272:64:64-i64:64-f80:128-n8:16:32:64-S128"
target triple = "x86_64-pc-linux-gnu"

@.str = private unnamed_addr constant [4 x i8] c"%d,\00", align 1
@.str.1 = private unnamed_addr constant [3 x i8] c"%d\00", align 1

; Function Attrs: nounwind sspstrong uwtable
define dso_local i32 @main() local_unnamed_addr #0 {
  %1 = alloca [100000 x i8], align 16
  %2 = alloca [300 x i32], align 16
  %3 = getelementptr inbounds [100000 x i8], [100000 x i8]* %1, i64 0, i64 0
  call void @llvm.lifetime.start.p0i8(i64 100000, i8* nonnull %3) #5
  %4 = call i32 (i8*, ...) bitcast (i32 (...)* @gets to i32 (i8*, ...)*)(i8* nonnull %3) #5
  %5 = bitcast [300 x i32]* %2 to i8*
  call void @llvm.lifetime.start.p0i8(i64 1200, i8* nonnull %5) #5
  call void @llvm.memset.p0i8.i64(i8* noundef nonnull align 16 dereferenceable(1200) %5, i8 0, i64 1200, i1 false)
  br label %6

6:                                                ; preds = %26, %0
  %7 = phi i8* [ %3, %0 ], [ %30, %26 ]
  %8 = phi i32 [ 0, %0 ], [ %27, %26 ]
  %9 = phi i32 [ 0, %0 ], [ %28, %26 ]
  %10 = phi i32 [ 0, %0 ], [ %29, %26 ]
  %11 = load i8, i8* %7, align 1, !tbaa !5
  switch i8 %11, label %16 [
    i8 0, label %12
    i8 32, label %21
  ]

12:                                               ; preds = %6
  %13 = icmp sgt i32 %10, 0
  br i1 %13, label %14, label %38

14:                                               ; preds = %12
  %15 = zext i32 %10 to i64
  br label %31

16:                                               ; preds = %6
  %17 = sext i32 %8 to i64
  %18 = getelementptr inbounds [300 x i32], [300 x i32]* %2, i64 0, i64 %17
  %19 = load i32, i32* %18, align 4, !tbaa !8
  %20 = add nsw i32 %19, 1
  store i32 %20, i32* %18, align 4, !tbaa !8
  br label %26

21:                                               ; preds = %6
  %22 = icmp eq i32 %9, 1
  %23 = add nsw i32 %8, 1
  %24 = select i1 %22, i32 %23, i32 %8
  %25 = select i1 %22, i32 %23, i32 %10
  br label %26

26:                                               ; preds = %21, %16
  %27 = phi i32 [ %8, %16 ], [ %24, %21 ]
  %28 = phi i32 [ 1, %16 ], [ 0, %21 ]
  %29 = phi i32 [ %10, %16 ], [ %25, %21 ]
  %30 = getelementptr inbounds i8, i8* %7, i64 1
  br label %6, !llvm.loop !10

31:                                               ; preds = %14, %31
  %32 = phi i64 [ 0, %14 ], [ %36, %31 ]
  %33 = getelementptr inbounds [300 x i32], [300 x i32]* %2, i64 0, i64 %32
  %34 = load i32, i32* %33, align 4, !tbaa !8
  %35 = call i32 (i8*, ...) @printf(i8* nonnull dereferenceable(1) getelementptr inbounds ([4 x i8], [4 x i8]* @.str, i64 0, i64 0), i32 %34)
  %36 = add nuw nsw i64 %32, 1
  %37 = icmp eq i64 %36, %15
  br i1 %37, label %38, label %31, !llvm.loop !12

38:                                               ; preds = %31, %12
  %39 = sext i32 %10 to i64
  %40 = getelementptr inbounds [300 x i32], [300 x i32]* %2, i64 0, i64 %39
  %41 = load i32, i32* %40, align 4, !tbaa !8
  %42 = call i32 (i8*, ...) @printf(i8* nonnull dereferenceable(1) getelementptr inbounds ([3 x i8], [3 x i8]* @.str.1, i64 0, i64 0), i32 %41)
  call void @llvm.lifetime.end.p0i8(i64 1200, i8* nonnull %5) #5
  call void @llvm.lifetime.end.p0i8(i64 100000, i8* nonnull %3) #5
  ret i32 0
}

; Function Attrs: argmemonly mustprogress nofree nosync nounwind willreturn
declare void @llvm.lifetime.start.p0i8(i64 immarg, i8* nocapture) #1

declare i32 @gets(...) local_unnamed_addr #2

; Function Attrs: argmemonly mustprogress nofree nounwind willreturn writeonly
declare void @llvm.memset.p0i8.i64(i8* nocapture writeonly, i8, i64, i1 immarg) #3

; Function Attrs: nofree nounwind
declare noundef i32 @printf(i8* nocapture noundef readonly, ...) local_unnamed_addr #4

; Function Attrs: argmemonly mustprogress nofree nosync nounwind willreturn
declare void @llvm.lifetime.end.p0i8(i64 immarg, i8* nocapture) #1


!llvm.module.flags = !{!0, !1, !2, !3}
!llvm.ident = !{!4}

!0 = !{i32 1, !"wchar_size", i32 4}
!1 = !{i32 7, !"PIC Level", i32 2}
!2 = !{i32 7, !"PIE Level", i32 2}
!3 = !{i32 7, !"uwtable", i32 1}
!4 = !{!"clang version 13.0.0"}
!5 = !{!6, !6, i64 0}
!6 = !{!"omnipotent char", !7, i64 0}
!7 = !{!"Simple C/C++ TBAA"}
!8 = !{!9, !9, i64 0}
!9 = !{!"int", !6, i64 0}
!10 = distinct !{!10, !11}
!11 = !{!"llvm.loop.mustprogress"}
!12 = distinct !{!12, !11}
